target datalayout = "e-m:e-p270:32:32-p271:32:32-p272:64:64-i64:64-i128:128-f80:128-n8:16:32:64-S128"
target triple = "x86_64-pc-linux-gnu"

%struct.redisServer = type { i32, i64, ptr, ptr, ptr, i32, i32, i32, i32, i32, ptr, ptr, ptr, ptr, ptr, i32, i32, i32, i32, i64, i32, i32, i32, i32, ptr, i32, i32, [41 x i8], i32, i64, i32, i32, i32, ptr, ptr, i32, i32, i64, ptr, ptr, ptr, ptr, [2 x i32], i32, i32, i32, i32, i32, i32, [16 x ptr], i32, ptr, ptr, i32, [8 x %struct.connListener], i32, %struct.connListener, ptr, ptr, ptr, ptr, ptr, ptr, ptr, ptr, ptr, ptr, i32, ptr, i32, ptr, [3 x %struct.pause_event], [256 x i8], ptr, i64, i32, i32, [128 x i32], i32, i32, i64, i32, i32, i32, i32, i32, i64, i64, i64, i64, i64, i64, i64, i64, i64, i64, double, i64, i64, i64, i64, i64, i64, i64, i64, i64, i64, i64, i64, i64, i64, i64, i64, i64, i64, i64, i64, i64, double, i64, i64, i64, i64, i64, ptr, i64, i64, i64, %struct.malloc_stats, i64, i64, i64, i64, i64, i64, i64, i64, i64, i64, i64, i64, double, [4 x i64], i64, i64, i64, i64, [128 x i64], [128 x i64], i64, i64, [7 x %struct.anon], i64, i64, i64, i64, i64, i64, [4 x %struct.durationStats], i32, i32, i32, i32, i32, i32, i32, i32, i32, i32, i32, i32, i64, i32, i32, i32, i32, i64, i64, i32, i32, i32, i32, i32, ptr, [3 x %struct.clientBufferLimitsConfig], i32, i32, i32, ptr, i32, i32, i32, i32, i32, i32, ptr, ptr, i32, i32, i64, i64, i64, i64, i64, i32, i32, ptr, i32, i32, i64, i64, i64, i64, i64, i32, i32, i64, i32, i32, i32, i32, i32, i32, i32, i32, ptr, i32, i64, i64, i64, i64, i32, ptr, i32, ptr, i32, i32, i32, i64, i64, i64, i64, i32, i32, i32, i32, i32, i32, ptr, i32, i32, ptr, i32, i32, i32, [2 x i32], i32, %struct.redisOpArray, i32, ptr, i32, ptr, i32, i32, i32, i32, i32, i32, i32, [41 x i8], [41 x i8], i64, i64, i64, i64, i32, i32, ptr, i64, i64, %struct.replDataBuf, i64, i64, i32, i32, i32, i32, i32, i32, i32, i32, i32, i64, ptr, i64, ptr, ptr, ptr, i32, i32, ptr, ptr, i32, i32, i32, i64, i64, i64, i64, ptr, ptr, i32, ptr, i64, i32, i32, i32, i64, i32, i32, i32, i32, ptr, i32, i32, [41 x i8], i64, i32, ptr, i32, i32, i64, i64, i32, i32, i32, i32, i32, i64, [3 x i32], i32, i32, i32, [10 x i32], ptr, ptr, i32, i64, ptr, ptr, i32, i32, i32, i32, i64, i64, i64, i64, i64, i64, i64, i64, i64, i64, i32, i32, i64, i64, i32, i64, i64, i64, i64, i64, ptr, ptr, i32, ptr, i32, i32, i32, i32, i64, i64, ptr, ptr, i32, i32, i32, i32, i32, ptr, ptr, ptr, i32, i32, i32, i32, i32, i32, i32, i64, i32, i32, i64, i32, i32, i32, i32, i32, i32, i32, i64, ptr, ptr, i64, ptr, i32, %struct.aclInfo, i32, i64, i32, i32, i32, %struct.redisTLSContextConfig, ptr, ptr, ptr, ptr, ptr, i64, i32, ptr, i32, i32, i32, i64, i32, ptr }
%struct.connListener = type { [16 x i32], i32, ptr, i32, i32, ptr, ptr }
%struct.pause_event = type { i32, i64 }
%struct.malloc_stats = type { i64, i64, i64, i64, i64, i64, i64, i64, i64, i64, i64 }
%struct.anon = type { i64, i64, [16 x i64], i32 }
%struct.durationStats = type { i64, i64, i64 }
%struct.clientBufferLimitsConfig = type { i64, i64, i64 }
%struct.redisOpArray = type { ptr, i32, i32 }
%struct.replDataBuf = type { ptr, i64, i64, i64, i64 }
%struct.aclInfo = type { i64, i64, i64, i64 }
%struct.redisTLSContextConfig = type { ptr, ptr, ptr, ptr, ptr, ptr, ptr, ptr, ptr, ptr, ptr, ptr, i32, i32, i32, i32 }
%struct.client = type { i64, i64, ptr, i8, i8, i8, i8, i32, ptr, ptr, ptr, ptr, ptr, i64, i64, i32, ptr, i32, i32, ptr, i64, ptr, ptr, ptr, ptr, ptr, i32, i32, i64, ptr, i64, ptr, i64, i64, i64, i32, ptr, i64, i64, i32, i32, i32, i32, i64, i64, ptr, i64, i64, i64, i64, i64, i64, i64, i64, [41 x i8], i32, ptr, i32, i32, i64, %struct.multiState, %struct.blockingState, i64, ptr, ptr, ptr, ptr, ptr, ptr, ptr, ptr, ptr, ptr, ptr, ptr, ptr, ptr, i64, ptr, i64, i32, ptr, ptr, ptr, i64, %struct.listNode, i64, i64, i32, i64, ptr }
%struct.multiState = type { ptr, i32, i32, i32, i64, i32 }
%struct.blockingState = type { i32, i64, i32, ptr, i32, i32, i64, ptr, ptr, i64 }
%struct.listNode = type { ptr, ptr, ptr }
%struct.raxIterator = type { i32, ptr, ptr, ptr, i64, i64, [128 x i8], ptr, %struct.raxStack, ptr }
%struct.raxStack = type { ptr, i64, i64, [32 x ptr], i32 }

@server = external global %struct.redisServer, align 8
@.str.1 = private unnamed_addr constant [2 x i8] c"^\00", align 1

; Function Attrs: nounwind uwtable
define dso_local i32 @checkBlockedClientTimeout(ptr noundef %0, i64 noundef %1) #0 {
  %3 = alloca i32, align 4
  %4 = alloca ptr, align 8
  %5 = alloca i64, align 8
  store ptr %0, ptr %4, align 8, !tbaa !5
  store i64 %1, ptr %5, align 8, !tbaa !10
  %6 = load ptr, ptr %4, align 8, !tbaa !5
  %7 = getelementptr inbounds nuw %struct.client, ptr %6, i32 0, i32 1
  %8 = load i64, ptr %7, align 8, !tbaa !12
  %9 = and i64 %8, 16
  %10 = icmp ne i64 %9, 0
  br i1 %10, label %11, label %26

11:                                               ; preds = %2
  %12 = load ptr, ptr %4, align 8, !tbaa !5
  %13 = getelementptr inbounds nuw %struct.client, ptr %12, i32 0, i32 61
  %14 = getelementptr inbounds nuw %struct.blockingState, ptr %13, i32 0, i32 1
  %15 = load i64, ptr %14, align 8, !tbaa !31
  %16 = icmp ne i64 %15, 0
  br i1 %16, label %17, label %26

17:                                               ; preds = %11
  %18 = load ptr, ptr %4, align 8, !tbaa !5
  %19 = getelementptr inbounds nuw %struct.client, ptr %18, i32 0, i32 61
  %20 = getelementptr inbounds nuw %struct.blockingState, ptr %19, i32 0, i32 1
  %21 = load i64, ptr %20, align 8, !tbaa !31
  %22 = load i64, ptr %5, align 8, !tbaa !10
  %23 = icmp slt i64 %21, %22
  br i1 %23, label %24, label %26

24:                                               ; preds = %17
  %25 = load ptr, ptr %4, align 8, !tbaa !5
  call void @unblockClientOnTimeout(ptr noundef %25)
  store i32 1, ptr %3, align 4
  br label %27

26:                                               ; preds = %17, %11, %2
  store i32 0, ptr %3, align 4
  br label %27

27:                                               ; preds = %26, %24
  %28 = load i32, ptr %3, align 4
  ret i32 %28
}

; Function Attrs: nounwind uwtable
define dso_local void @decodeTimeoutKey(ptr noundef %0, ptr noundef %1, ptr noundef %2) #0 {
  %4 = alloca ptr, align 8
  %5 = alloca ptr, align 8
  %6 = alloca ptr, align 8
  store ptr %0, ptr %4, align 8, !tbaa !56
  store ptr %1, ptr %5, align 8, !tbaa !57
  store ptr %2, ptr %6, align 8, !tbaa !59
  %7 = load ptr, ptr %5, align 8, !tbaa !57
  %8 = load ptr, ptr %4, align 8, !tbaa !56
  call void @llvm.memcpy.p0.p0.i64(ptr align 8 %7, ptr align 1 %8, i64 8, i1 false)
  %9 = load ptr, ptr %5, align 8, !tbaa !57
  %10 = load i64, ptr %9, align 8, !tbaa !32
  %11 = call i64 @intrev64(i64 noundef %10)
  %12 = load ptr, ptr %5, align 8, !tbaa !57
  store i64 %11, ptr %12, align 8, !tbaa !32
  %13 = load ptr, ptr %6, align 8, !tbaa !59
  %14 = load ptr, ptr %4, align 8, !tbaa !56
  %15 = getelementptr inbounds i8, ptr %14, i64 8
  call void @llvm.memcpy.p0.p0.i64(ptr align 8 %13, ptr align 1 %15, i64 8, i1 false)
  ret void
}

; Function Attrs: nounwind uwtable
define dso_local void @handleBlockedClientsTimeout() #0 {
  %1 = alloca i64, align 8
  %2 = alloca %struct.raxIterator, align 8
  %3 = alloca i64, align 8
  %4 = alloca ptr, align 8
  %5 = alloca i32, align 4
  %6 = load ptr, ptr getelementptr inbounds nuw (%struct.redisServer, ptr @server, i32 0, i32 66), align 8, !tbaa !61
  %7 = call i64 @raxSize(ptr noundef %6)
  %8 = icmp eq i64 %7, 0
  br i1 %8, label %9, label %10

9:                                                ; preds = %0
  br label %43

10:                                               ; preds = %0
  call void @llvm.lifetime.start.p0(i64 8, ptr %1) #5
  %11 = call i64 @mstime()
  store i64 %11, ptr %1, align 8, !tbaa !32
  call void @llvm.lifetime.start.p0(i64 480, ptr %2) #5
  %12 = load ptr, ptr getelementptr inbounds nuw (%struct.redisServer, ptr @server, i32 0, i32 66), align 8, !tbaa !61
  call void @raxStart(ptr noundef %2, ptr noundef %12)
  %13 = call i32 @raxSeek(ptr noundef %2, ptr noundef @.str.1, ptr noundef null, i64 noundef 0)
  br label %14

14:                                               ; preds = %41, %10
  %15 = call i32 @raxNext(ptr noundef %2)
  %16 = icmp ne i32 %15, 0
  br i1 %16, label %17, label %42

17:                                               ; preds = %14
  call void @llvm.lifetime.start.p0(i64 8, ptr %3) #5
  call void @llvm.lifetime.start.p0(i64 8, ptr %4) #5
  %18 = getelementptr inbounds nuw %struct.raxIterator, ptr %2, i32 0, i32 2
  %19 = load ptr, ptr %18, align 8, !tbaa !62
  call void @decodeTimeoutKey(ptr noundef %19, ptr noundef %3, ptr noundef %4)
  %20 = load i64, ptr %3, align 8, !tbaa !32
  %21 = load i64, ptr %1, align 8, !tbaa !32
  %22 = icmp uge i64 %20, %21
  br i1 %22, label %23, label %24

23:                                               ; preds = %17
  store i32 3, ptr %5, align 4
  br label %39

24:                                               ; preds = %17
  %25 = load ptr, ptr %4, align 8, !tbaa !5
  %26 = getelementptr inbounds nuw %struct.client, ptr %25, i32 0, i32 1
  %27 = load i64, ptr %26, align 8, !tbaa !12
  %28 = and i64 %27, -274877906945
  store i64 %28, ptr %26, align 8, !tbaa !12
  %29 = load ptr, ptr %4, align 8, !tbaa !5
  %30 = load i64, ptr %1, align 8, !tbaa !32
  %31 = call i32 @checkBlockedClientTimeout(ptr noundef %29, i64 noundef %30)
  %32 = load ptr, ptr getelementptr inbounds nuw (%struct.redisServer, ptr @server, i32 0, i32 66), align 8, !tbaa !61
  %33 = getelementptr inbounds nuw %struct.raxIterator, ptr %2, i32 0, i32 2
  %34 = load ptr, ptr %33, align 8, !tbaa !62
  %35 = getelementptr inbounds nuw %struct.raxIterator, ptr %2, i32 0, i32 4
  %36 = load i64, ptr %35, align 8, !tbaa !66
  %37 = call i32 @raxRemove(ptr noundef %32, ptr noundef %34, i64 noundef %36, ptr noundef null)
  %38 = call i32 @raxSeek(ptr noundef %2, ptr noundef @.str.1, ptr noundef null, i64 noundef 0)
  store i32 0, ptr %5, align 4
  br label %39

39:                                               ; preds = %24, %23
  call void @llvm.lifetime.end.p0(i64 8, ptr %4) #5
  call void @llvm.lifetime.end.p0(i64 8, ptr %3) #5
  %40 = load i32, ptr %5, align 4
  switch i32 %40, label %44 [
    i32 0, label %41
    i32 3, label %42
  ]

41:                                               ; preds = %39
  br label %14, !llvm.loop !67

42:                                               ; preds = %39, %14
  call void @raxStop(ptr noundef %2)
  call void @llvm.lifetime.end.p0(i64 480, ptr %2) #5
  call void @llvm.lifetime.end.p0(i64 8, ptr %1) #5
  br label %43

43:                                               ; preds = %42, %9
  ret void

44:                                               ; preds = %39
  unreachable
}