; Function Attrs: nounwind uwtable
define dso_local void @handleBlockedClientsTimeout() local_unnamed_addr #0 {
  %1 = alloca %struct.raxIterator, align 8
  %2 = load ptr, ptr getelementptr inbounds nuw (i8, ptr @server, i64 1504), align 8, !tbaa !53
  %3 = tail call i64 @raxSize(ptr noundef %2) #4
  %4 = icmp eq i64 %3, 0
  br i1 %4, label %36, label %5

5:                                                ; preds = %0
  %6 = tail call i64 @mstime() #4
  call void @llvm.lifetime.start.p0(i64 480, ptr nonnull %1) #4
  %7 = load ptr, ptr getelementptr inbounds nuw (i8, ptr @server, i64 1504), align 8, !tbaa !53
  call void @raxStart(ptr noundef nonnull %1, ptr noundef %7) #4
  %8 = call i32 @raxSeek(ptr noundef nonnull %1, ptr noundef nonnull @.str.1, ptr noundef null, i64 noundef 0) #4
  %9 = getelementptr inbounds nuw i8, ptr %1, i64 16
  %10 = call i32 @raxNext(ptr noundef nonnull %1) #4
  %.not7 = icmp eq i32 %10, 0
  br i1 %.not7, label %.thread, label %.lr.ph

.lr.ph:                                           ; preds = %5
  %11 = getelementptr inbounds nuw i8, ptr %1, i64 32
  br label %12

12:                                               ; preds = %.lr.ph, %29
  %13 = load ptr, ptr %9, align 8, !tbaa !54
  %14 = load i64, ptr %13, align 1
  %15 = call i64 @intrev64(i64 noundef %14) #4
  %16 = getelementptr inbounds nuw i8, ptr %13, i64 8
  %17 = load i64, ptr %16, align 1
  %18 = inttoptr i64 %17 to ptr
  %.not4 = icmp ult i64 %15, %6
  br i1 %.not4, label %19, label %.thread

19:                                               ; preds = %12
  %20 = getelementptr inbounds nuw i8, ptr %18, i64 8
  %21 = load i64, ptr %20, align 8, !tbaa !5
  %22 = and i64 %21, -274877906945
  store i64 %22, ptr %20, align 8, !tbaa !5
  %23 = and i64 %21, 16
  %.not.i = icmp eq i64 %23, 0
  br i1 %.not.i, label %29, label %24

24:                                               ; preds = %19
  %25 = getelementptr inbounds nuw i8, ptr %18, i64 488
  %26 = load i64, ptr %25, align 8, !tbaa !28
  %.not6.i = icmp ne i64 %26, 0
  %27 = icmp slt i64 %26, %6
  %or.cond.i = and i1 %.not6.i, %27
  br i1 %or.cond.i, label %28, label %29

28:                                               ; preds = %24
  call void @unblockClientOnTimeout(ptr noundef nonnull %18) #4
  br label %29

29:                                               ; preds = %28, %24, %19
  %30 = load ptr, ptr getelementptr inbounds nuw (i8, ptr @server, i64 1504), align 8, !tbaa !53
  %31 = load ptr, ptr %9, align 8, !tbaa !54
  %32 = load i64, ptr %11, align 8, !tbaa !58
  %33 = call i32 @raxRemove(ptr noundef %30, ptr noundef %31, i64 noundef %32, ptr noundef null) #4
  %34 = call i32 @raxSeek(ptr noundef nonnull %1, ptr noundef nonnull @.str.1, ptr noundef null, i64 noundef 0) #4
  %35 = call i32 @raxNext(ptr noundef nonnull %1) #4
  %.not = icmp eq i32 %35, 0
  br i1 %.not, label %.thread, label %12

.thread:                                          ; preds = %29, %12, %5
  call void @raxStop(ptr noundef nonnull %1) #4
  call void @llvm.lifetime.end.p0(i64 480, ptr nonnull %1) #4
  br label %36

36:                                               ; preds = %0, %.thread
  ret void
}